ccopy_reg
_reconstructor
p0
(cencoder
Encoder
p1
c__builtin__
object
p2
Ntp3
Rp4
(dp5
S'name'
p6
S'day'
p7
sS'idtotoken'
p8
(dp9
I0
I0
sI1
I1
sI2
I2
sI3
I3
sI4
I4
sI5
I5
sI6
I6
ssS'tokens'
p10
(lp11
I3
aI3
aI3
aI3
aI3
aI3
aI3
aI3
aI3
aI3
aI3
aI2
aI2
aI2
aI2
aI2
aI2
aI2
aI2
aI2
aI2
aI1
aI1
aI1
aI1
aI1
aI1
aI1
aI1
aI1
aI1
aI1
aI0
aI0
aI0
aI0
aI0
aI0
aI0
aI0
aI0
aI0
aI6
aI6
aI6
aI6
aI6
aI6
aI6
aI6
aI6
aI6
aI6
aI6
aI6
aI6
aI6
aI6
aI6
aI6
aI6
aI6
aI6
aI5
aI5
aI5
aI5
aI5
aI5
aI5
aI4
aI4
aI4
aI4
aI4
aI4
aI4
aI4
aI4
aI4
aI3
aI3
aI3
aI3
aI3
aI3
aI3
aI3
aI3
aI3
aI2
aI2
aI2
aI2
aI2
aI2
aI2
aI2
aI2
aI2
aI2
aI2
aI2
aI2
aI1
aI1
aI1
aI1
aI1
aI1
aI1
aI1
aI1
aI1
aI0
aI0
aI0
aI0
aI0
aI0
aI0
aI0
aI0
aI6
aI6
aI6
aI6
aI6
aI6
aI6
aI6
aI6
aI6
aI6
aI6
aI6
aI6
aI6
aI6
aI6
aI6
aI5
aI5
aI5
aI5
aI5
aI5
aI5
aI5
aI4
aI4
aI4
aI4
aI4
aI4
aI4
aI4
aI4
aI4
aI4
aI3
aI3
aI3
aI3
aI3
aI3
aI3
aI3
aI3
aI3
aI3
aI3
aI2
aI2
aI2
aI2
aI2
aI2
aI2
aI2
aI2
aI2
aI2
aI2
aI2
aI2
aI2
aI2
aI1
aI1
aI1
aI1
aI1
aI1
aI1
aI1
aI1
aI1
aI0
aI0
aI0
aI0
aI0
aI0
aI0
aI0
aI6
aI6
aI6
aI6
aI6
aI6
aI6
aI6
aI6
aI6
aI6
aI6
aI6
aI6
aI6
aI6
aI6
aI6
aI6
aI5
aI5
aI5
aI5
aI5
aI5
aI4
aI4
aI4
aI4
aI4
aI4
aI4
aI4
aI4
aI4
aI4
aI4
aI4
aI4
aI3
aI3
aI3
aI3
aI3
aI3
aI3
aI3
aI3
aI3
aI3
aI3
aI2
aI2
aI2
aI2
aI2
aI2
aI2
aI2
aI2
aI1
aI1
aI1
aI1
aI1
aI1
aI1
aI1
aI1
aI1
aI0
aI0
aI0
aI0
aI0
aI0
aI0
aI0
aI0
aI0
aI6
aI6
aI6
aI6
aI6
aI6
aI6
aI6
aI6
aI6
aI6
aI6
aI6
aI6
aI6
aI6
aI6
aI6
aI5
aI5
aI5
aI5
aI5
aI5
aI5
aI4
aI4
aI4
aI4
aI4
aI4
aI4
aI4
aI4
aI4
aI4
aI3
aI3
aI3
aI3
aI3
aI3
aI3
aI3
aI3
aI3
aI3
aI3
aI3
aI2
aI2
aI2
aI2
aI2
aI2
aI2
aI2
aI2
aI2
aI2
aI1
aI1
aI1
aI1
aI1
aI1
aI1
aI1
aI1
aI1
aI1
aI0
aI0
aI0
aI0
aI0
aI0
aI0
aI0
aI0
aI0
aI6
aI6
aI6
aI6
aI6
aI6
aI6
aI6
aI6
aI6
aI6
aI6
aI6
aI6
aI6
aI6
aI6
aI5
aI5
aI5
aI5
aI5
aI5
aI4
aI4
aI4
aI4
aI4
aI4
aI4
aI4
aI4
aI4
aI4
aI3
aI3
aI3
aI3
aI3
aI3
aI3
aI3
aI3
aI3
aI3
aI3
aI2
aI2
aI2
aI2
aI2
aI2
aI2
aI2
aI2
aI1
aI1
aI1
aI1
aI1
aI1
aI1
aI1
aI1
aI1
aI1
aI1
aI0
aI0
aI0
aI0
aI0
aI0
aI0
aI0
aI0
aI0
aI0
aI6
aI6
aI6
aI6
aI6
aI6
aI6
aI6
aI6
aI6
aI6
aI6
aI6
aI6
aI6
aI6
aI6
aI6
aI5
aI5
aI5
aI5
aI5
aI5
aI4
aI4
aI4
aI4
aI4
aI4
aI4
aI4
aI4
aI4
aI3
aI3
aI3
aI3
aI3
aI3
aI3
aI3
aI3
aI3
aI3
aI2
aI2
aI2
aI2
aI2
aI2
aI2
aI2
aI2
aI1
aI1
aI1
aI1
aI1
aI1
aI1
aI1
aI1
aI1
aI1
aI1
aI0
aI0
aI0
aI0
aI0
aI0
aI0
aI0
aI0
aI0
aI0
aI6
aI6
aI6
aI6
aI6
aI6
aI6
aI6
aI6
aI6
aI6
aI6
aI6
aI6
aI6
aI6
aI6
aI6
aI5
aI5
aI5
aI5
aI5
aI5
aI5
aI5
aI5
aI4
aI4
aI4
aI4
aI4
aI4
aI4
aI4
aI4
aI4
aI3
aI3
aI3
aI3
aI3
aI3
aI3
aI3
aI3
aI3
aI3
aI2
aI2
aI2
aI2
aI2
aI2
aI2
aI2
aI2
aI2
aI2
aI2
aI2
aI2
aI1
aI1
aI1
aI1
aI1
aI1
aI1
aI1
aI1
aI1
aI1
aI0
aI0
aI0
aI0
aI0
aI0
aI0
aI0
aI0
aI0
aI6
aI6
aI6
aI6
aI6
aI6
aI6
aI6
aI6
aI6
aI6
aI6
aI6
aI6
aI6
aI6
aI6
aI5
aI5
aI5
aI5
aI5
aI5
aI5
aI4
aI4
aI4
aI4
aI4
aI4
aI4
aI4
aI4
aI4
aI4
aI3
aI3
aI3
aI3
aI3
aI3
aI3
aI3
aI3
aI3
aI3
aI3
aI2
aI2
aI2
aI2
aI2
aI2
aI2
aI1
aI1
aI1
aI1
aI1
aI1
aI1
aI1
aI1
aI1
aI1
aI1
aI0
aI0
aI0
aI0
aI0
aI0
aI0
aI0
aI6
aI6
aI6
aI6
aI6
aI6
aI6
aI6
aI6
aI6
aI6
aI6
aI6
aI6
aI6
aI6
aI6
aI5
aI5
aI5
aI5
aI5
aI5
aI5
aI5
aI5
aI4
aI4
aI4
aI4
aI4
aI4
aI4
aI4
aI4
aI4
aI4
aI4
aI4
aI3
aI3
aI3
aI3
aI3
aI3
aI3
aI3
aI3
aI3
aI3
aI3
aI1
aI2
aI2
aI2
aI2
aI2
aI2
aI2
aI2
aI2
aI2
aI1
aI1
aI1
aI1
aI1
aI1
aI1
aI1
aI1
aI1
aI0
aI0
aI0
aI0
aI0
aI0
aI0
aI0
aI0
aI0
aI6
aI6
aI6
aI6
aI6
aI6
aI6
aI6
aI6
aI6
aI6
aI6
aI6
aI6
aI6
aI6
aI6
aI5
aI6
aI5
aI5
aI5
aI5
aI5
aI5
aI5
aI5
aI5
aI4
aI4
aI4
aI4
aI4
aI4
aI4
aI4
aI4
aI4
aI4
aI4
aI3
aI3
aI3
aI3
aI3
aI3
aI3
aI3
aI3
aI3
aI3
aI3
aI2
aI2
aI2
aI2
aI2
aI2
aI2
aI2
aI2
aI1
aI1
aI1
aI1
aI1
aI1
aI1
aI1
aI1
aI1
aI0
aI0
aI0
aI0
aI0
aI0
aI0
aI6
aI6
aI6
aI6
aI6
aI6
aI6
aI6
aI6
aI6
aI6
aI6
aI6
aI6
aI6
aI6
aI6
aI6
aI5
aI5
aI5
aI5
aI5
aI5
aI5
aI4
aI4
aI4
aI4
aI4
aI4
aI4
aI4
aI4
aI4
aI4
aI4
aI4
aI3
aI3
aI3
aI3
aI3
aI3
aI3
aI3
aI3
aI3
aI3
aI2
aI2
aI2
aI2
aI2
aI2
aI2
aI2
aI2
aI2
aI2
aI2
aI1
aI1
aI1
aI1
aI1
aI1
aI1
aI1
aI1
aI1
aI0
aI0
aI0
aI0
aI0
aI0
aI0
aI0
aI6
aI6
aI6
aI6
aI6
aI6
aI6
aI6
aI6
aI6
aI6
aI6
aI6
aI6
aI6
aI6
aI6
aI6
aI6
aI6
aI6
aI5
aI5
aI5
aI5
aI3
aI3
aI3
aI3
aI3
aI3
aI3
aI3
aI3
aI3
aI2
aI2
aI2
aI2
aI2
aI2
aI2
aI2
aI2
aI2
aI1
aI1
aI1
aI1
aI1
aI1
aI1
aI1
aI0
aI0
aI0
aI0
aI0
aI0
aI0
aI6
aI6
aI6
aI6
aI6
aI6
aI6
aI6
aI6
aI6
aI6
aI6
aI6
aI6
aI6
aI6
aI6
aI5
aI5
aI5
aI5
aI5
aI5
aI4
aI4
aI4
aI4
aI4
aI4
aI3
aI3
aI3
aI3
aI3
aI3
aI3
aI2
aI2
aI2
aI2
aI2
aI2
aI2
aI2
aI1
aI1
aI1
aI1
aI1
aI1
aI1
aI1
aI0
aI0
aI0
aI0
aI0
aI0
aI0
aI0
aI6
aI6
aI6
aI6
aI6
aI6
aI5
aI5
aI5
aI5
aI5
aI5
aI5
aI5
aI4
aI4
aI4
aI4
aI4
aI4
aI4
aI3
aI3
aI3
aI3
aI3
aI3
aI3
aI3
aI3
aI3
aI2
aI2
aI2
aI2
aI2
aI2
aI2
aI2
aI2
aI2
aI1
aI1
aI1
aI1
aI1
aI1
aI1
aI1
aI1
aI0
aI0
aI0
aI0
aI0
aI0
aI0
aI0
aI0
aI0
aI6
aI6
aI6
aI6
aI6
aI6
aI6
aI6
aI6
aI6
aI6
aI6
aI6
aI6
aI6
aI6
aI6
aI6
aI6
aI6
aI5
aI5
aI5
aI5
aI5
aI5
aI4
aI4
aI4
aI4
aI4
aI4
aI4
aI4
aI4
aI4
aI4
aI4
aI4
aI3
aI3
aI3
aI3
aI3
aI3
aI3
aI3
aI3
aI3
aI3
aI3
aI2
aI2
aI2
aI2
aI2
aI2
aI2
aI2
aI2
aI2
aI2
aI2
aI2
aI1
aI1
aI1
aI1
aI1
aI1
aI1
aI1
aI1
aI1
aI1
aI1
aI1
aI1
aI1
aI0
aI0
aI0
aI0
aI0
aI0
aI0
aI0
aI0
aI6
aI6
aI6
aI6
aI6
aI6
aI6
aI6
aI6
aI6
aI6
aI6
aI6
aI6
aI6
aI6
aI6
aI5
aI5
aI5
aI5
aI5
aI5
aI5
aI4
aI4
aI4
aI4
aI4
aI4
aI4
aI4
aI4
aI4
aI4
aI3
aI3
aI3
aI3
aI3
aI3
aI3
aI3
aI3
aI3
aI3
aI3
aI3
aI3
aI3
aI3
aI3
aI2
aI2
aI2
aI2
aI2
aI2
aI2
aI2
aI2
aI2
aI2
aI1
aI1
aI1
aI1
aI1
aI1
aI1
aI1
aI1
aI1
aI1
aI1
aI0
aI0
aI0
aI0
aI0
aI0
aI0
aI0
aI0
aI0
aI0
aI0
aI0
aI6
aI6
aI6
aI6
aI6
aI6
aI6
aI6
aI6
aI6
aI6
aI6
aI6
aI6
aI6
aI6
aI5
aI5
aI5
aI5
aI5
aI5
aI5
aI5
aI5
aI5
aI5
aI4
aI4
aI4
aI4
aI4
aI4
aI4
aI4
aI4
aI4
aI4
aI4
aI4
aI3
aI3
aI3
aI3
aI3
aI3
aI3
aI3
aI3
aI3
aI3
aI2
aI2
aI2
aI2
aI2
aI2
aI2
aI2
aI2
aI1
aI1
aI1
aI1
aI1
aI1
aI1
aI1
aI1
aI4
aI0
aI0
aI0
aI0
aI0
aI0
aI0
aI0
aI6
aI6
aI6
aI6
aI6
aI6
aI6
aI6
aI6
aI6
aI6
aI6
aI6
aI6
aI6
aI6
aI6
aI5
aI5
aI5
aI5
aI5
aI5
aI5
aI4
aI4
aI4
aI4
aI4
aI4
aI4
aI4
aI4
aI4
aI4
aI3
aI3
aI3
aI3
aI3
aI3
aI3
aI3
aI3
aI2
aI2
aI2
aI2
aI2
aI2
aI2
aI2
aI2
aI2
aI2
aI2
aI1
aI1
aI1
aI1
aI1
aI1
aI1
aI1
aI1
aI0
aI0
aI0
aI0
aI0
aI0
aI0
aI0
aI0
aI0
aI0
aI6
aI6
aI6
aI6
aI6
aI6
aI6
aI6
aI6
aI6
aI6
aI6
aI6
aI6
aI6
aI6
aI5
aI5
aI5
aI5
aI5
aI5
aI5
aI5
aI5
aI4
aI4
aI4
aI4
aI4
aI4
aI4
aI4
aI4
aI4
aI4
aI3
aI3
aI3
aI3
aI3
aI3
aI3
aI3
aI3
aI3
aI3
aI3
aI2
aI2
aI2
aI2
aI2
aI2
aI2
aI2
aI2
aI1
aI1
aI1
aI1
aI1
aI1
aI1
aI1
aI1
aI1
aI0
aI0
aI0
aI0
aI0
aI0
aI0
aI0
aI6
aI6
aI6
aI6
aI6
aI6
aI6
aI6
aI6
aI6
aI6
aI6
aI6
aI6
aI6
aI6
aI6
aI5
aI5
aI5
aI5
aI5
aI5
aI5
aI5
aI5
aI5
aI4
aI4
aI4
aI4
aI4
aI4
aI4
aI4
aI4
aI4
aI4
aI4
aI4
aI3
aI3
aI3
aI3
aI3
aI3
aI3
aI3
aI3
aI3
aI3
aI3
aI2
aI2
aI2
aI2
aI2
aI2
aI2
aI2
aI2
aI2
aI2
aI2
aI2
aI1
aI1
aI1
aI1
aI1
aI1
aI1
aI1
aI1
aI0
aI0
aI0
aI0
aI0
aI0
aI6
aI6
aI6
aI6
aI6
aI6
aI6
aI6
aI6
aI6
aI6
aI6
aI6
aI6
aI6
aI6
aI6
aI5
aI5
aI5
aI5
aI5
aI5
aI5
aI5
aI5
aI5
aI4
aI4
aI4
aI4
aI4
aI4
aI4
aI4
aI4
aI4
aI3
aI3
aI3
aI3
aI3
aI3
aI3
aI3
aI3
aI3
aI3
aI3
aI2
aI2
aI2
aI2
aI2
aI2
aI2
aI2
aI2
aI1
aI1
aI1
aI1
aI1
aI1
aI1
aI1
aI1
aI1
aI1
aI1
aI0
aI0
aI0
aI0
aI0
aI0
aI0
aI0
aI0
aI6
aI6
aI6
aI6
aI6
aI6
aI6
aI6
aI6
aI6
aI6
aI6
aI6
aI6
aI6
aI6
aI5
aI5
aI5
aI5
aI5
aI5
aI5
aI4
aI4
aI4
aI4
aI4
aI4
aI4
aI4
aI4
aI4
aI4
aI4
aI3
aI3
aI3
aI3
aI3
aI3
aI3
aI3
aI3
aI3
aI3
aI2
aI2
aI2
aI2
aI2
aI2
aI2
aI2
aI2
aI2
aI2
aI2
aI1
aI1
aI1
aI1
aI1
aI1
aI1
aI1
aI1
aI1
aI1
aI0
aI0
aI0
aI0
aI0
aI0
aI0
aI0
aI0
aI0
aI0
aI0
aI6
aI6
aI6
aI6
aI6
aI6
aI6
aI6
aI6
aI6
aI6
aI6
aI6
aI6
aI6
aI5
aI5
aI5
aI5
aI5
aI5
aI5
aI5
aI5
aI5
aI5
aI5
aI4
aI4
aI4
aI4
aI4
aI4
aI4
aI4
aI4
aI4
aI4
aI3
aI3
aI3
aI3
aI3
aI3
aI3
aI3
aI3
aI2
aI2
aI2
aI2
aI2
aI2
aI2
aI2
aI2
aI2
aI1
aI1
aI1
aI1
aI1
aI1
aI1
aI1
aI1
aI1
aI1
aI0
aI0
aI0
aI0
aI0
aI0
aI0
aI0
aI0
aI6
aI6
aI6
aI6
aI6
aI6
aI6
aI6
aI6
aI6
aI6
aI6
aI6
aI6
aI6
aI6
aI5
aI5
aI5
aI5
aI5
aI5
aI5
aI5
aI4
aI4
aI4
aI4
aI4
aI4
aI4
aI4
aI4
aI4
aI3
aI3
aI3
aI3
aI3
aI3
aI3
aI3
aI3
aI3
aI3
aI3
aI2
aI2
aI2
aI2
aI2
aI2
aI2
aI2
aI1
aI1
aI1
aI1
aI1
aI1
aI1
aI1
aI6
aI6
aI6
aI6
aI6
aI6
aI6
aI6
aI6
aI6
aI6
aI6
aI6
aI6
aI5
aI5
aI5
aI5
aI5
aI5
aI5
aI5
aI5
aI4
aI4
aI4
aI4
aI4
aI4
aI4
aI4
aI4
aI3
aI4
aI3
aI3
aI3
aI3
aI3
aI3
aI3
aI3
aI3
aI3
aI3
aI2
aI2
aI2
aI2
aI2
aI2
aI2
aI2
aI2
aI2
aI1
aI1
aI1
aI1
aI1
aI1
aI1
aI1
aI0
aI0
aI0
aI0
aI0
aI0
aI0
aI0
aI0
aI6
aI6
aI6
aI6
aI6
aI6
aI6
aI6
aI6
aI6
aI6
aI6
aI6
aI6
aI6
aI6
aI6
aI6
aI5
aI5
aI5
aI5
aI5
aI5
aI5
aI4
aI4
aI4
aI4
aI4
aI4
aI4
aI4
aI4
aI3
aI4
aI3
aI3
aI3
aI3
aI3
aI3
aI3
aI3
aI3
aI3
aI3
aI3
aI3
aI3
aI2
aI2
aI2
aI2
aI2
aI2
aI2
aI2
aI2
aI2
aI2
aI1
aI1
aI1
aI1
aI1
aI1
aI1
aI1
aI1
aI1
aI0
aI0
aI0
aI0
aI0
aI0
aI0
aI0
aI0
aI0
aI6
aI6
aI6
aI6
aI6
aI6
aI6
aI6
aI6
aI6
aI6
aI6
aI6
aI6
aI6
aI6
aI6
aI6
aI6
aI5
aI5
aI5
aI5
aI5
aI5
aI5
aI5
aI5
aI5
aI4
aI4
aI4
aI4
aI4
aI4
aI4
aI4
aI4
aI4
aI4
aI3
aI3
aI3
aI3
aI3
aI3
aI3
aI3
aI3
aI3
aI2
aI2
aI2
aI2
aI2
aI2
aI2
aI2
aI2
aI2
aI1
aI1
aI1
aI1
aI1
aI1
aI1
aI1
aI1
aI1
aI1
aI0
aI0
aI0
aI0
aI0
aI0
aI0
aI0
aI0
aI6
aI6
aI6
aI6
aI6
aI6
aI6
aI6
aI6
aI6
aI6
aI6
aI6
aI6
aI6
aI6
aI5
aI5
aI5
aI5
aI5
aI5
aI5
aI5
aI5
aI5
aI4
aI4
aI4
aI4
aI4
aI4
aI4
aI4
aI4
aI4
aI4
aI3
aI3
aI3
aI3
aI3
aI3
aI3
aI3
aI3
aI3
aI3
aI3
aI3
aI3
aI2
aI2
aI2
aI2
aI2
aI2
aI2
aI2
aI2
aI2
aI2
aI1
aI1
aI1
aI1
aI1
aI1
aI1
aI1
aI1
aI1
aI1
aI0
aI0
aI0
aI0
aI0
aI0
aI0
aI0
aI0
aI6
aI6
aI6
aI6
aI6
aI6
aI6
aI6
aI6
aI6
aI6
aI6
aI6
aI6
aI6
aI6
aI5
aI5
aI5
aI5
aI5
aI5
aI5
aI5
aI5
aI5
aI5
aI5
aI4
aI4
aI4
aI4
aI4
aI4
aI4
aI4
aI4
aI4
aI4
aI3
aI3
aI3
aI3
aI3
aI3
aI3
aI3
aI3
aI3
aI2
aI2
aI2
aI2
aI2
aI2
aI2
aI2
aI2
aI2
aI2
aI2
aI1
aI1
aI1
aI1
aI1
aI1
aI1
aI1
aI1
aI1
aI1
aI0
aI0
aI0
aI0
aI0
aI0
aI0
aI0
aI6
aI6
aI6
aI6
aI6
aI6
aI6
aI6
aI6
aI6
aI6
aI6
aI6
aI6
aI6
aI6
aI5
aI5
aI5
aI5
aI5
aI5
aI5
aI5
aI5
aI4
aI4
aI4
aI4
aI4
aI4
aI4
aI4
aI4
aI3
aI3
aI3
aI3
aI3
aI3
aI3
aI3
aI3
aI3
aI2
aI2
aI2
aI2
aI2
aI2
aI2
aI2
aI2
aI2
aI1
aI1
aI1
aI1
aI1
aI1
aI1
aI0
aI0
aI0
aI0
aI0
aI0
aI0
aI6
aI6
aI6
aI6
aI6
aI6
aI6
aI6
aI6
aI6
aI6
aI6
aI6
aI3
aI5
aI5
aI5
aI5
aI5
aI5
aI5
aI5
aI5
aI5
aI4
aI4
aI4
aI4
aI4
aI4
aI4
aI4
aI4
aI4
aI4
aI3
aI3
aI3
aI3
aI3
aI3
aI3
aI3
aI3
aI3
aI3
aI2
aI2
aI2
aI2
aI2
aI2
aI2
aI2
aI2
aI1
aI1
aI1
aI1
aI1
aI1
aI1
aI1
aI1
aI0
aI0
aI0
aI0
aI0
aI0
aI0
aI0
aI0
aI6
aI6
aI6
aI6
aI6
aI6
aI6
aI6
aI6
aI6
aI6
aI6
aI6
aI6
aI4
aI5
aI5
aI5
aI5
aI5
aI5
aI5
aI5
aI5
aI4
aI4
aI4
aI4
aI4
aI4
aI4
aI4
aI3
aI3
aI3
aI3
aI3
aI3
aI3
aI3
aI3
aI3
aI3
aI3
aI2
aI2
aI2
aI2
aI2
aI2
aI2
aI2
aI2
aI2
aI1
aI1
aI1
aI1
aI1
aI1
aI1
aI1
aI1
aI1
aI1
aI1
aI1
aI1
aI0
aI0
aI0
aI0
aI0
aI0
aI0
aI0
aI6
aI6
aI6
aI6
aI6
aI6
aI6
aI6
aI6
aI6
aI6
aI6
aI6
aI6
aI5
aI5
aI5
aI5
aI5
aI5
aI5
aI5
aI4
aI4
aI4
aI4
aI4
aI4
aI4
aI4
aI4
aI4
aI3
aI3
aI3
aI3
aI3
aI3
aI3
aI3
aI3
aI3
aI3
aI3
aI2
aI2
aI2
aI2
aI2
aI2
aI2
aI2
aI2
aI2
aI1
aI1
aI1
aI1
aI1
aI1
aI1
aI1
aI1
aI1
aI1
aI0
aI0
aI0
aI0
aI0
aI0
aI0
aI0
aI6
aI6
aI6
aI6
aI6
aI6
aI6
aI6
aI6
aI6
aI6
aI6
aI6
aI6
aI6
aI5
aI5
aI5
aI5
aI5
aI5
aI5
aI4
aI4
aI4
aI4
aI4
aI4
aI4
aI4
aI4
aI4
aI4
aI3
aI3
aI3
aI3
aI3
aI3
aI3
aI3
aI3
aI3
aI3
aI3
aI3
aI2
aI2
aI2
aI2
aI2
aI2
aI2
aI2
aI2
aI2
aI1
aI1
aI1
aI1
aI1
aI1
aI1
aI1
aI1
aI1
aI1
aI1
aI0
aI0
aI0
aI0
aI0
aI0
aI0
aI0
aI0
aI0
aI6
aI6
aI6
aI6
aI6
aI6
aI6
aI6
aI6
aI6
aI6
aI6
aI6
aI6
aI6
aI6
aI5
aI5
aI5
aI5
aI5
aI5
aI5
aI5
aI5
aI4
aI4
aI4
aI4
aI4
aI4
aI4
aI4
aI4
aI3
aI3
aI3
aI3
aI3
aI3
aI3
aI3
aI3
aI3
aI2
aI2
aI2
aI2
aI2
aI2
aI2
aI2
aI2
aI2
aI2
aI1
aI1
aI1
aI1
aI1
aI1
aI1
aI1
aI1
aI1
aI1
aI1
aI0
aI0
aI0
aI0
aI0
aI0
aI0
aI6
aI6
aI6
aI6
aI6
aI6
aI6
aI6
aI6
aI6
aI6
aI6
aI6
aI4
aI5
aI5
aI5
aI5
aI5
aI5
aI5
aI5
aI5
aI4
aI4
aI4
aI4
aI4
aI4
aI4
aI4
aI4
aI4
aI3
aI3
aI3
aI3
aI3
aI3
aI3
aI3
aI3
aI3
aI3
aI3
aI3
aI2
aI2
aI2
aI2
aI2
aI2
aI2
aI2
aI2
aI2
aI2
aI1
aI1
aI1
aI1
aI1
aI1
aI1
aI1
aI1
aI1
aI1
aI1
aI0
aI0
aI0
aI0
aI0
aI0
aI0
aI0
aI0
aI0
aI0
aI6
aI6
aI6
aI6
aI6
aI6
aI6
aI6
aI6
aI6
aI6
aI6
aI6
aI6
aI6
aI6
aI6
aI5
aI5
aI5
aI5
aI5
aI5
aI5
aI3
aI3
aI3
aI3
aI3
aI3
aI3
aI3
aI2
aI2
aI2
aI2
aI2
aI2
aI2
aI2
aI2
aI2
aI2
aI2
aI2
aI1
aI1
aI1
aI1
aI1
aI1
aI1
aI1
aI1
aI0
aI0
aI0
aI0
aI0
aI0
aI0
aI0
aI0
aI0
aI6
aI6
aI6
aI6
aI6
aI6
aI6
aI6
aI6
aI6
aI6
aI6
aI6
aI6
aI6
aI6
aI5
aI5
aI5
aI5
aI5
aI5
aI5
aI5
aI4
aI4
aI4
aI4
aI4
aI4
aI4
aI4
aI4
aI4
aI3
aI3
aI3
aI3
aI3
aI3
aI3
aI3
aI3
aI3
aI3
aI2
aI2
aI2
aI2
aI2
aI2
aI2
aI2
aI2
aI2
aI2
aI1
aI1
aI1
aI1
aI1
aI1
aI1
aI1
aI1
aI1
aI0
aI0
aI0
aI0
aI0
aI0
aI0
aI0
aI6
aI6
aI6
aI6
aI6
aI6
aI6
aI6
aI6
aI6
aI6
aI6
aI6
aI6
aI6
aI6
aI5
aI5
aI5
aI5
aI5
aI5
aI5
aI5
aI5
aI5
aI5
aI4
aI4
aI4
aI4
aI4
aI4
aI4
aI4
aI3
aI3
aI3
aI3
aI3
aI3
aI3
aI3
aI2
aI2
aI2
aI2
aI2
aI2
aI2
aI2
aI2
aI2
aI2
aI2
aI1
aI1
aI1
aI1
aI1
aI1
aI1
aI0
aI0
aI0
aI0
aI0
aI0
aI0
aI0
aI6
aI6
aI6
aI6
aI6
aI6
aI6
aI6
aI6
aI6
aI6
aI6
aI6
aI6
aI6
aI6
aI5
aI5
aI5
aI5
aI5
aI5
aI5
aI4
aI4
aI4
aI4
aI4
aI4
aI4
aI4
aI4
aI4
aI4
aI4
aI3
aI3
aI3
aI3
aI3
aI3
aI3
aI3
aI3
aI2
aI2
aI2
aI2
aI2
aI2
aI2
aI2
aI2
aI2
aI2
aI1
aI1
aI1
aI1
aI1
aI1
aI1
aI1
aI1
aI1
aI0
aI0
aI0
aI0
aI0
aI0
aI0
aI0
aI0
aI6
aI6
aI6
aI6
aI6
aI6
aI6
aI6
aI6
aI6
aI6
aI6
aI6
aI6
aI6
aI6
aI6
aI6
aI5
aI5
aI5
aI5
aI5
aI5
aI5
aI5
aI4
aI4
aI4
aI4
aI4
aI4
aI4
aI4
aI4
aI4
aI4
aI4
aI3
aI3
aI3
aI3
aI3
aI3
aI3
aI3
aI3
aI3
aI3
aI2
aI2
aI2
aI2
aI2
aI2
aI2
aI2
aI2
aI2
aI1
aI2
aI2
aI1
aI1
aI1
aI1
aI1
aI1
aI1
aI1
aI1
aI1
aI1
aI0
aI0
aI0
aI0
aI0
aI0
aI0
aI0
aI0
aI6
aI6
aI6
aI6
aI6
aI6
aI6
aI6
aI6
aI6
aI6
aI6
aI6
aI6
aI6
aI5
aI5
aI5
aI5
aI5
aI5
aI5
aI5
aI5
aI5
aI4
aI4
aI4
aI4
aI4
aI4
aI4
aI4
aI4
aI3
aI3
aI3
aI3
aI3
aI3
aI3
aI3
aI3
aI3
aI3
aI2
aI2
aI2
aI2
aI2
aI2
aI2
aI2
aI2
aI2
aI2
aI2
aI2
aI1
aI1
aI1
aI1
aI1
aI1
aI1
aI1
aI1
aI1
aI1
aI0
aI0
aI0
aI0
aI0
aI0
aI0
aI0
aI6
aI6
aI6
aI6
aI6
aI6
aI6
aI6
aI6
aI6
aI6
aI6
aI6
aI6
aI6
aI6
aI6
aI5
aI5
aI5
aI5
aI5
aI5
aI5
aI5
aI4
aI4
aI4
aI4
aI4
aI4
aI4
aI4
aI4
aI4
aI4
aI4
aI3
aI3
aI3
aI3
aI3
aI3
aI3
aI3
aI2
aI2
aI2
aI2
aI2
aI2
aI2
aI2
aI2
aI2
aI2
aI2
aI2
aI2
aI1
aI1
aI1
aI1
aI1
aI1
aI1
aI1
aI1
aI1
aI1
aI0
aI0
aI0
aI0
aI0
aI0
aI0
aI0
aI6
aI6
aI6
aI6
aI6
aI6
aI6
aI6
aI6
aI6
aI6
aI6
aI6
aI6
aI6
aI6
aI6
aI6
aI6
aI6
aI5
aI5
aI5
aI5
aI5
aI5
aI5
aI5
aI5
aI4
aI4
aI4
aI4
aI4
aI4
aI4
aI4
aI4
aI4
aI4
aI3
aI3
aI3
aI3
aI3
aI3
aI3
aI3
aI3
aI3
aI3
aI2
aI2
aI2
aI2
aI2
aI2
aI2
aI2
aI2
aI2
aI2
aI1
aI1
aI1
aI1
aI1
aI1
aI1
aI1
aI1
aI0
aI0
aI0
aI0
aI0
aI0
aI0
aI0
aI6
aI6
aI6
aI6
aI6
aI6
aI6
aI6
aI6
aI6
aI6
aI6
aI6
aI6
aI6
aI6
aI5
aI5
aI5
aI5
aI5
aI5
aI5
aI5
aI4
aI4
aI4
aI4
aI4
aI4
aI4
aI4
aI4
aI4
aI4
aI3
aI3
aI3
aI3
aI3
aI3
aI3
aI3
aI2
aI2
aI2
aI2
aI2
aI2
aI2
aI2
aI2
aI2
aI2
aI2
aI2
aI1
aI1
aI1
aI1
aI1
aI1
aI1
aI1
aI1
aI1
aI0
aI0
aI0
aI0
aI0
aI0
aI0
aI0
aI0
aI6
aI6
aI6
aI6
aI6
aI6
aI6
aI6
aI6
aI6
aI6
aI6
aI6
aI6
aI6
aI6
aI6
aI6
aI5
aI5
aI5
aI5
aI5
aI5
aI5
aI5
aI5
aI4
aI4
aI4
aI4
aI4
aI4
aI4
aI4
aI4
aI3
aI3
aI3
aI3
aI3
aI3
aI3
aI3
aI3
aI3
aI3
aI3
aI3
aI2
aI2
aI2
aI2
aI2
aI2
aI2
aI2
aI2
aI2
aI2
aI1
aI1
aI1
aI1
aI1
aI1
aI1
aI1
aI1
aI1
aI1
aI0
aI0
aI0
aI0
aI0
aI0
aI6
aI6
aI6
aI6
aI6
aI6
aI6
aI6
aI6
aI6
aI6
aI6
aI6
aI5
aI5
aI5
aI5
aI5
aI5
aI5
aI5
aI5
aI5
aI5
aI5
aI5
aI4
aI4
aI4
aI4
aI4
aI4
aI4
aI4
aI4
aI4
aI4
aI4
aI3
aI3
aI3
aI3
aI3
aI3
aI3
aI3
aI3
aI3
aI2
aI2
aI2
aI2
aI2
aI2
aI2
aI2
aI2
aI2
aI2
aI2
aI1
aI1
aI1
aI1
aI1
aI1
aI1
aI1
aI1
aI0
aI0
aI0
aI0
aI0
aI0
aI6
aI6
aI6
aI6
aI6
aI6
aI6
aI6
aI6
aI6
aI6
aI6
aI6
aI6
aI6
aI6
aI6
aI6
aI5
aI5
aI5
aI5
aI5
aI5
aI5
aI5
aI5
aI5
aI5
aI4
aI4
aI4
aI4
aI4
aI4
aI4
aI3
aI3
aI3
aI3
aI3
aI3
aI3
aI3
aI3
aI3
aI3
aI3
aI2
aI2
aI2
aI2
aI2
aI2
aI2
aI2
aI2
aI2
aI2
aI2
aI1
aI1
aI1
aI1
aI1
aI1
aI1
aI1
aI1
aI1
aI1
aI0
aI0
aI0
aI0
aI0
aI0
aI0
aI0
aI0
aI0
aI6
aI6
aI6
aI6
aI6
aI6
aI6
aI6
aI6
aI6
aI6
aI6
aI6
aI6
aI6
aI6
aI6
aI5
aI5
aI5
aI5
aI5
aI5
aI5
aI5
aI5
aI5
aI5
aI4
aI4
aI4
aI4
aI4
aI4
aI4
aI4
aI4
aI4
aI3
aI3
aI3
aI3
aI3
aI3
aI3
aI3
aI3
aI3
aI3
aI2
aI2
aI2
aI2
aI2
aI2
aI2
aI2
aI2
aI2
aI2
aI2
aI2
aI2
aI1
aI1
aI1
aI1
aI1
aI1
aI1
aI6
aI6
aI6
aI6
aI6
aI6
aI6
aI6
aI6
aI6
aI6
aI6
aI6
aI6
aI6
aI6
aI5
aI5
aI5
aI5
aI5
aI5
aI5
aI5
aI5
aI5
aI5
aI4
aI4
aI4
aI4
aI4
aI4
aI4
aI4
aI4
aI4
aI4
aI4
aI4
aI3
aI3
aI3
aI3
aI3
aI3
aI3
aI3
aI3
aI2
aI2
aI2
aI2
aI2
aI2
aI2
aI2
aI2
aI2
aI2
aI2
aI2
aI2
aI1
aI1
aI1
aI1
aI1
aI1
aI1
aI1
aI1
aI1
aI0
aI0
aI0
aI0
aI0
aI0
aI0
aI0
aI0
aI0
aI0
aI6
aI6
aI6
aI6
aI6
aI6
aI6
aI6
aI6
aI6
aI6
aI6
aI6
aI6
aI6
aI5
aI5
aI5
aI5
aI5
aI5
aI5
aI5
aI5
aI4
aI4
aI4
aI4
aI4
aI4
aI4
aI4
aI4
aI4
aI4
aI3
aI3
aI3
aI3
aI3
aI3
aI3
aI3
aI3
aI3
aI2
aI2
aI2
aI2
aI2
aI2
aI2
aI2
aI2
aI2
aI2
aI1
aI1
aI1
aI1
aI1
aI1
aI1
aI1
aI1
aI0
aI0
aI0
aI0
aI0
aI0
aI0
aI0
aI0
aI0
aI0
aI6
aI6
aI6
aI6
aI6
aI6
aI6
aI6
aI6
aI6
aI6
aI6
aI6
aI6
aI6
aI6
aI5
aI5
aI5
aI5
aI5
aI5
aI5
aI5
aI5
aI5
aI5
aI4
aI4
aI4
aI4
aI4
aI4
aI4
aI4
aI4
aI4
aI4
aI4
aI4
aI4
aI3
aI3
aI3
aI3
aI3
aI3
aI3
aI3
aI3
aI3
aI3
aI2
aI2
aI2
aI2
aI2
aI2
aI2
aI2
aI2
aI2
aI2
aI2
aI1
aI1
aI1
aI1
aI1
aI1
aI1
aI1
aI0
aI0
aI0
aI0
aI0
aI0
aI0
aI0
aI0
aI6
aI6
aI6
aI6
aI6
aI6
aI6
aI6
aI6
aI6
aI6
aI6
aI6
aI6
aI6
aI6
aI5
aI5
aI5
aI5
aI5
aI5
aI5
aI5
aI4
aI4
aI4
aI4
aI4
aI4
aI4
aI4
aI4
aI4
aI3
aI3
aI3
aI3
aI3
aI3
aI3
aI3
aI3
aI3
aI3
aI2
aI2
aI2
aI2
aI2
aI2
aI2
aI2
aI2
aI2
aI2
aI1
aI1
aI1
aI1
aI1
aI1
aI1
aI1
aI1
aI1
aI1
aI0
aI0
aI0
aI0
aI0
aI0
aI0
aI0
aI6
aI6
aI6
aI6
aI6
aI6
aI6
aI6
aI6
aI6
aI6
aI6
aI6
aI6
aI6
aI6
aI6
aI5
aI5
aI5
aI5
aI5
aI5
aI5
aI5
aI5
aI4
aI4
aI4
aI4
aI4
aI4
aI4
aI4
aI4
aI3
aI3
aI3
aI3
aI3
aI3
aI3
aI3
aI3
aI3
aI3
aI3
aI2
aI2
aI2
aI2
aI2
aI2
aI2
aI2
aI2
aI2
aI1
aI1
aI1
aI1
aI1
aI1
aI1
aI1
aI1
aI1
aI1
aI0
aI0
aI0
aI0
aI0
aI0
aI0
aI0
aI6
aI6
aI6
aI6
aI6
aI6
aI6
aI6
aI6
aI6
aI6
aI6
aI6
aI6
aI6
aI6
aI5
aI5
aI5
aI5
aI5
aI5
aI5
aI5
aI5
aI5
aI5
aI4
aI4
aI4
aI4
aI4
aI4
aI4
aI4
aI4
aI4
aI4
aI3
aI3
aI3
aI3
aI3
aI3
aI3
aI3
aI3
aI3
aI3
aI3
aI2
aI2
aI2
aI2
aI2
aI2
aI2
aI2
aI2
aI2
aI2
aI1
aI1
aI1
aI1
aI1
aI1
aI1
aI1
aI1
aI1
aI0
aI0
aI0
aI0
aI0
aI0
aI0
aI0
aI0
aI0
aI0
aI6
aI6
aI6
aI6
aI6
aI6
aI6
aI6
aI6
aI6
aI6
aI6
aI6
aI6
aI6
aI6
aI5
aI5
aI5
aI5
aI5
aI5
aI5
aI5
aI5
aI4
aI4
aI4
aI4
aI4
aI4
aI4
aI4
aI4
aI4
aI4
aI4
aI4
aI3
aI3
aI3
aI3
aI3
aI3
aI3
aI3
aI3
aI3
aI3
aI2
aI2
aI2
aI2
aI2
aI2
aI2
aI2
aI2
aI2
aI2
aI1
aI1
aI1
aI1
aI1
aI1
aI1
aI1
aI1
aI1
aI1
aI0
aI0
aI0
aI0
aI0
aI0
aI0
aI0
aI6
aI6
aI6
aI6
aI6
aI6
aI6
aI6
aI6
aI6
aI6
aI6
aI6
aI6
aI6
aI6
aI5
aI5
aI5
aI5
aI5
aI5
aI5
aI5
aI4
aI4
aI4
aI4
aI4
aI4
aI4
aI4
aI4
aI4
aI4
aI4
aI3
aI3
aI3
aI3
aI3
aI3
aI3
aI3
aI3
aI3
aI2
aI2
aI2
aI2
aI2
aI2
aI2
aI2
aI2
aI2
aI1
aI1
aI1
aI1
aI1
aI1
aI1
aI1
aI1
aI1
aI1
aI1
aI0
aI0
aI0
aI0
aI0
aI0
aI0
aI0
aI0
aI0
aI6
aI6
aI6
aI6
aI6
aI6
aI6
aI6
aI6
aI6
aI6
aI6
aI6
aI6
aI6
aI5
aI5
aI5
aI5
aI5
aI5
aI5
aI5
aI5
aI4
aI4
aI4
aI4
aI4
aI4
aI4
aI4
aI4
aI4
aI4
aI4
aI4
aI3
aI3
aI3
aI3
aI3
aI3
aI3
aI3
aI3
aI3
aI3
aI2
aI2
aI2
aI2
aI2
aI2
aI2
aI2
aI2
aI1
aI1
aI1
aI1
aI1
aI1
aI1
aI1
aI0
aI0
aI0
aI0
aI0
aI0
aI0
aI0
aI0
aI0
aI0
aI0
aI6
aI6
aI6
aI6
aI6
aI6
aI6
aI6
aI6
aI6
aI6
aI6
aI6
aI6
aI6
aI6
aI6
aI5
aI5
aI5
aI5
aI5
aI5
aI5
aI5
aI5
aI4
aI4
aI4
aI4
aI4
aI4
aI4
aI4
aI4
aI4
aI4
aI3
aI3
aI3
aI3
aI3
aI3
aI3
aI3
aI3
aI3
aI2
aI2
aI2
aI2
aI2
aI2
aI2
aI2
aI2
aI2
aI1
aI1
aI1
aI1
aI1
aI1
aI1
aI1
aI1
aI1
aI0
aI0
aI0
aI0
aI0
aI0
aI0
aI0
aI0
aI0
aI6
aI6
aI6
aI6
aI6
aI6
aI6
aI6
aI6
aI6
aI6
aI6
aI6
aI6
aI6
aI5
aI5
aI5
aI5
aI5
aI5
aI5
aI5
aI5
aI4
aI4
aI4
aI4
aI4
aI4
aI4
aI4
aI4
aI4
aI4
aI4
aI3
aI3
aI3
aI3
aI3
aI3
aI3
aI3
aI3
aI3
aI3
aI2
aI2
aI2
aI2
aI2
aI2
aI2
aI2
aI2
aI2
aI2
aI2
aI1
aI1
aI1
aI1
aI1
aI1
aI1
aI1
aI1
aI1
aI0
aI0
aI0
aI0
aI0
aI0
aI0
aI0
aI0
aI6
aI6
aI6
aI6
aI6
aI6
aI6
aI6
aI6
aI6
aI6
aI6
aI6
aI6
aI6
aI5
aI5
aI5
aI5
aI5
aI5
aI5
aI5
aI5
aI4
aI4
aI4
aI4
aI4
aI4
aI4
aI4
aI4
aI3
aI3
aI3
aI3
aI3
aI3
aI3
aI3
aI3
aI2
aI2
aI2
aI2
aI2
aI2
aI2
aI2
aI2
aI2
aI2
aI2
aI1
aI1
aI1
aI1
aI1
aI1
aI1
aI1
aI0
aI0
aI0
aI0
aI0
aI0
aI0
aI0
aI0
aI0
aI6
aI5
aI5
aI5
aI5
aI5
aI5
aI5
aI5
aI5
aI5
aI4
aI4
aI4
aI4
aI4
aI4
aI4
aI4
aI4
aI3
aI3
aI3
aI3
aI3
aI3
aI3
aI3
aI3
aI3
aI3
aI3
aI3
aI2
aI2
aI2
aI2
aI2
aI2
aI2
aI2
aI2
aI2
aI2
aI2
aI1
aI1
aI1
aI1
aI1
aI1
aI1
aI1
aI0
aI0
aI0
aI0
aI0
aI0
aI0
aI0
aI0
aI0
aI0
aI6
aI6
aI6
aI6
aI6
aI6
aI6
aI6
aI6
aI6
aI6
aI6
aI6
aI6
aI5
aI5
aI5
aI5
aI5
aI5
aI5
aI5
aI5
aI5
aI5
aI5
aI5
aI5
aI4
aI4
aI4
aI4
aI4
aI4
aI4
aI4
aI4
aI4
aI4
aI3
aI3
aI3
aI3
aI3
aI3
aI3
aI3
aI3
aI3
aI3
aI2
aI2
aI2
aI2
aI2
aI2
aI2
aI2
aI2
aI2
aI2
aI1
aI1
aI1
aI1
aI1
aI1
aI1
aI1
aI0
aI0
aI0
aI0
aI0
aI0
aI0
aI0
aI0
aI0
aI6
aI6
aI6
aI6
aI6
aI6
aI6
aI6
aI6
aI6
aI6
aI6
aI6
aI6
aI6
aI6
aI5
aI5
aI5
aI5
aI5
aI5
aI5
aI5
aI4
aI4
aI4
aI4
aI4
aI4
aI4
aI4
aI4
aI4
aI4
aI4
aI3
aI3
aI3
aI3
aI3
aI3
aI3
aI3
aI3
aI3
aI3
aI3
aI3
aI2
aI2
aI2
aI2
aI2
aI2
aI2
aI2
aI2
aI2
aI1
aI1
aI1
aI1
aI1
aI1
aI1
aI1
aI1
aI0
aI0
aI0
aI0
aI0
aI0
aI0
aI6
aI6
aI6
aI6
aI6
aI6
aI6
aI6
aI6
aI6
aI6
aI6
aI6
aI6
aI6
aI6
aI5
aI5
aI5
aI5
aI5
aI5
aI5
aI5
aI5
aI5
aI4
aI4
aI4
aI4
aI4
aI4
aI4
aI4
aI4
aI4
aI3
aI3
aI3
aI3
aI3
aI3
aI2
aI2
aI2
aI2
aI2
aI2
aI2
aI2
aI2
aI2
aI2
aI2
aI1
aI1
aI1
aI1
aI1
aI1
aI1
aI1
aI1
aI1
aI1
aI0
aI0
aI0
aI0
aI0
aI0
aI0
aI6
aI6
aI6
aI6
aI6
aI6
aI5
aI5
aI5
aI5
aI5
aI5
aI5
aI5
aI5
aI5
aI5
aI4
aI4
aI4
aI4
aI4
aI4
aI4
aI4
aI4
aI3
aI3
aI3
aI3
aI3
aI3
aI3
aI3
aI2
aI2
aI2
aI2
aI2
aI2
aI2
aI2
aI2
aI2
aI1
aI1
aI1
aI1
aI1
aI1
aI1
aI1
aI1
aI0
aI0
aI0
aI0
aI0
aI0
aI0
aI0
aI6
aI6
aI6
aI6
aI6
aI6
aI6
aI6
aI6
aI6
aI6
aI6
aI5
aI5
aI5
aI5
aI5
aI5
aI5
aI5
aI5
aI5
aI5
aI5
aI4
aI4
aI4
aI4
aI4
aI4
aI4
aI4
aI4
aI4
aI4
aI3
aI3
aI3
aI3
aI3
aI3
aI3
aI3
aI3
aI3
aI2
aI2
aI2
aI2
aI2
aI2
aI2
aI2
aI2
aI2
aI2
aI1
aI1
aI1
aI1
aI1
aI1
aI1
aI1
aI1
aI0
aI0
aI0
aI0
aI0
aI0
aI0
aI6
aI6
aI6
aI6
aI6
aI6
aI6
aI6
aI6
aI6
aI6
aI6
aI6
aI6
aI6
aI5
aI5
aI5
aI5
aI5
aI5
aI5
aI5
aI5
aI5
aI4
aI4
aI4
aI4
aI4
aI4
aI4
aI4
aI4
aI4
aI4
aI3
aI3
aI3
aI3
aI3
aI3
aI3
aI3
aI3
aI3
aI3
aI3
aI2
aI2
aI2
aI2
aI2
aI2
aI2
aI2
aI2
aI1
aI1
aI1
aI1
aI1
aI1
aI1
aI1
aI1
aI1
aI1
aI0
aI0
aI0
aI0
aI0
aI0
aI0
aI0
aI0
aI0
aI6
aI6
aI6
aI6
aI6
aI6
aI6
aI6
aI6
aI6
aI6
aI6
aI6
aI6
aI5
aI5
aI5
aI5
aI5
aI5
aI5
aI5
aI5
aI5
aI4
aI4
aI4
aI4
aI4
aI4
aI4
aI4
aI4
aI4
aI4
aI3
aI3
aI3
aI3
aI3
aI3
aI3
aI3
aI3
aI3
aI3
aI3
aI3
aI2
aI2
aI2
aI2
aI2
aI2
aI2
aI2
aI2
aI2
aI2
aI1
aI1
aI1
aI1
aI1
aI1
aI1
aI1
aI1
aI1
aI0
aI0
aI0
aI0
aI0
aI0
aI0
aI6
aI6
aI6
aI6
aI6
aI6
aI6
aI6
aI6
aI6
aI6
aI6
aI6
aI6
aI6
aI6
aI6
aI6
aI5
aI5
aI5
aI5
aI5
aI5
aI5
aI5
aI5
aI5
aI5
aI4
aI4
aI4
aI4
aI4
aI4
aI4
aI4
aI4
aI4
aI4
aI4
aI3
aI3
aI3
aI3
aI3
aI3
aI3
aI3
aI3
aI2
aI2
aI2
aI2
aI2
aI2
aI2
aI2
aI2
aI2
aI2
aI2
aI1
aI1
aI1
aI1
aI1
aI1
aI1
aI1
aI0
aI0
aI0
aI0
aI0
aI0
aI0
aI0
aI0
aI6
aI6
aI6
aI6
aI6
aI6
aI6
aI6
aI6
aI6
aI6
aI6
aI5
aI5
aI5
aI5
aI5
aI5
aI5
aI5
aI5
aI5
aI4
aI4
aI4
aI4
aI4
aI4
aI4
aI4
aI4
aI4
aI3
aI3
aI3
aI3
aI3
aI3
aI3
aI3
aI3
aI3
aI2
aI2
aI2
aI2
aI2
aI2
aI2
aI2
aI2
aI2
aI2
aI1
aI1
aI1
aI1
aI1
aI1
aI1
aI1
aI1
aI1
aI1
aI0
aI0
aI0
aI0
aI0
aI0
aI0
aI0
aI0
aI0
aI6
aI6
aI6
aI6
aI6
aI6
aI6
aI6
aI6
aI6
aI6
aI6
aI6
aI6
aI6
aI5
aI5
aI5
aI5
aI5
aI5
aI5
aI5
aI5
aI5
aI5
aI4
aI4
aI4
aI4
aI4
aI4
aI4
aI4
aI4
aI4
aI4
aI3
aI3
aI3
aI3
aI3
aI3
aI3
aI3
aI3
aI3
aI3
aI2
aI2
aI2
aI2
aI2
aI2
aI2
aI2
aI2
aI2
aI2
aI2
aI2
aI1
aI1
aI1
aI1
aI1
aI1
aI1
aI1
aI1
aI1
aI1
aI1
aI1
aI1
aI0
aI0
aI0
aI0
aI0
aI0
aI0
aI0
aI0
aI6
aI6
aI6
aI6
aI6
aI6
aI6
aI6
aI6
aI6
aI6
aI6
aI6
aI6
aI6
aI5
aI5
aI5
aI5
aI5
aI5
aI5
aI5
aI5
aI5
aI5
aI5
aI4
aI4
aI4
aI4
aI4
aI4
aI4
aI4
aI4
aI4
aI4
aI4
aI3
aI3
aI3
aI3
aI3
aI3
aI3
aI3
aI3
aI3
aI3
aI3
aI2
aI2
aI2
aI2
aI2
aI2
aI2
aI2
aI2
aI2
aI2
aI2
aI2
aI2
aI2
aI2
aI2
aI2
aI1
aI1
aI1
aI1
aI1
aI1
aI1
aI1
aI1
aI1
aI1
aI1
aI1
aI1
aI1
aI1
aI0
aI0
aI0
aI0
aI0
aI0
aI0
aI0
aI0
aI6
aI6
aI6
aI6
aI6
aI6
aI6
aI6
aI6
aI6
aI6
aI6
aI6
aI6
aI6
aI6
aI6
aI6
aI5
aI5
aI5
aI5
aI5
aI5
aI5
aI5
aI4
aI4
aI4
aI4
aI4
aI4
aI4
aI4
aI4
aI4
aI4
aI4
aI4
aI3
aI3
aI3
aI3
aI3
aI3
aI3
aI3
aI1
aI1
aI1
aI1
aI1
aI1
aI1
aI1
aI1
aI1
aI1
aI1
aI0
aI0
aI0
aI0
aI0
aI0
aI0
aI0
aI0
aI6
aI6
aI6
aI6
aI6
aI6
aI6
aI6
aI6
aI6
aI6
aI6
aI6
aI6
aI5
aI5
aI5
aI5
aI5
aI5
aI5
aI5
aI5
aI5
aI5
aI4
aI4
aI4
aI4
aI4
aI4
aI4
aI4
aI4
aI4
aI4
aI4
aI3
aI3
aI3
aI3
aI3
aI3
aI3
aI3
aI3
aI3
aI2
aI2
aI2
aI2
aI2
aI2
aI2
aI2
aI2
aI2
aI2
aI2
aI2
aI1
aI1
aI1
aI1
aI1
aI1
aI1
aI1
aI1
aI1
aI1
aI0
aI0
aI0
aI0
aI0
aI0
aI0
aI0
aI6
aI6
aI6
aI6
aI6
aI6
aI6
aI6
aI6
aI6
aI6
aI6
aI6
aI6
aI6
aI6
aI6
aI5
aI5
aI5
aI5
aI5
aI5
aI5
aI5
aI5
aI5
aI4
aI4
aI4
aI4
aI4
aI4
aI4
aI4
aI4
aI3
aI3
aI3
aI3
aI3
aI3
aI3
aI3
aI3
aI3
aI2
aI2
aI2
aI2
aI2
aI2
aI2
aI2
aI2
aI2
aI2
aI1
aI1
aI1
aI1
aI1
aI1
aI1
aI1
aI1
aI1
aI0
aI0
aI0
aI0
aI0
aI0
aI0
aI6
aI6
aI6
aI6
aI6
aI6
aI6
aI6
aI6
aI6
aI6
aI6
aI6
aI6
aI5
aI5
aI5
aI5
aI5
aI5
aI5
aI5
aI5
aI5
aI4
aI4
aI4
aI4
aI4
aI4
aI4
aI4
aI4
aI4
aI3
aI3
aI3
aI3
aI3
aI3
aI3
aI3
aI3
aI3
aI3
aI2
aI2
aI2
aI2
aI2
aI2
aI2
aI2
aI2
aI2
aI2
aI2
aI2
aI2
aI1
aI1
aI1
aI1
aI1
aI1
aI1
aI1
aI1
aI0
aI0
aI0
aI0
aI0
aI0
aI0
aI0
aI0
aI0
aI0
aI6
aI6
aI6
aI6
aI6
aI6
aI6
aI6
aI6
aI6
aI6
aI6
aI6
aI6
aI6
aI6
aI6
aI5
aI5
aI5
aI5
aI5
aI5
aI5
aI5
aI5
aI5
aI5
aI5
aI5
aI5
aI4
aI4
aI4
aI4
aI4
aI4
aI4
aI4
aI4
aI4
aI4
aI4
aI3
aI3
aI3
aI3
aI3
aI3
aI3
aI3
aI3
aI3
aI3
aI2
aI2
aI2
aI2
aI2
aI2
aI2
aI2
aI2
aI2
aI1
aI1
aI1
aI1
aI1
aI1
aI1
aI1
aI1
aI1
aI0
aI0
aI0
aI0
aI0
aI0
aI0
aI0
aI0
aI0
aI6
aI6
aI6
aI6
aI6
aI6
aI6
aI6
aI6
aI6
aI6
aI6
aI6
aI6
aI6
aI6
aI6
aI6
aI5
aI5
aI5
aI5
aI5
aI5
aI5
aI5
aI5
aI5
aI4
aI4
aI4
aI4
aI4
aI4
aI4
aI4
aI4
aI4
aI4
aI3
aI3
aI3
aI3
aI3
aI3
aI3
aI3
aI3
aI3
aI2
aI2
aI2
aI2
aI2
aI2
aI2
aI2
aI2
aI2
aI1
aI1
aI1
aI1
aI1
aI1
aI1
aI1
aI1
aI0
aI0
aI0
aI0
aI0
aI0
aI0
aI0
aI0
aI6
aI6
aI6
aI6
aI6
aI6
aI6
aI6
aI6
aI6
aI6
aI6
aI6
aI6
aI6
aI6
aI6
aI6
aI6
aI6
aI5
aI5
aI5
aI5
aI5
aI5
aI5
aI5
aI5
aI5
aI5
aI4
aI4
aI4
aI4
aI4
aI4
aI4
aI4
aI4
aI4
aI4
aI3
aI3
aI3
aI3
aI3
aI3
aI3
aI3
aI3
aI3
aI3
aI3
aI2
aI2
aI2
aI2
aI2
aI2
aI2
aI2
aI2
aI2
aI2
aI2
aI1
aI1
aI1
aI1
aI1
aI1
aI1
aI1
aI1
aI1
aI1
aI1
aI0
aI0
aI0
aI0
aI0
aI0
aI0
aI0
aI0
aI6
aI6
aI6
aI6
aI6
aI6
aI6
aI6
aI6
aI6
aI6
aI6
aI6
aI6
aI5
aI5
aI5
aI5
aI5
aI5
aI5
aI5
aI5
aI4
aI4
aI4
aI4
aI4
aI4
aI4
aI4
aI4
aI4
aI4
aI3
aI3
aI3
aI3
aI3
aI3
aI3
aI3
aI3
aI3
aI3
aI2
aI2
aI2
aI2
aI2
aI2
aI2
aI2
aI2
aI2
aI2
aI2
aI1
aI1
aI1
aI1
aI1
aI1
aI1
aI1
aI1
aI1
aI1
aI1
aI1
aI1
aI0
aI0
aI0
aI0
aI0
aI0
aI0
aI0
aI0
aI0
aI0
aI6
aI6
aI6
aI6
aI6
aI6
aI6
aI6
aI6
aI6
aI6
aI6
aI6
aI6
aI6
aI6
aI5
aI5
aI5
aI5
aI5
aI5
aI5
aI5
aI5
aI4
aI4
aI4
aI4
aI4
aI4
aI4
aI4
aI4
aI4
aI4
aI4
aI4
aI3
aI3
aI3
aI3
aI3
aI3
aI3
aI3
aI3
aI3
aI3
aI3
aI2
aI2
aI2
aI2
aI2
aI2
aI2
aI2
aI2
aI2
aI2
aI2
aI1
aI1
aI1
aI1
aI1
aI1
aI1
aI1
aI1
aI1
aI0
aI0
aI0
aI0
aI0
aI0
aI0
aI0
aI0
aI6
aI6
aI6
aI6
aI6
aI6
aI6
aI6
aI6
aI6
aI6
aI6
aI6
aI6
aI5
aI5
aI5
aI5
aI5
aI5
aI5
aI5
aI4
aI4
aI4
aI4
aI4
aI4
aI4
aI4
aI4
aI4
aI3
aI3
aI3
aI3
aI3
aI3
aI3
aI3
aI3
aI2
aI2
aI2
aI2
aI2
aI2
aI2
aI2
aI2
aI2
aI1
aI1
aI1
aI1
aI1
aI1
aI1
aI1
aI1
aI0
aI0
aI0
aI0
aI0
aI0
aI0
aI0
aI0
aI6
aI6
aI6
aI6
aI6
aI6
aI6
aI6
aI6
aI6
aI6
aI6
aI6
aI6
aI6
aI6
aI5
aI5
aI5
aI5
aI5
aI5
aI5
aI5
aI5
aI5
aI5
aI5
aI4
aI4
aI4
aI4
aI4
aI4
aI4
aI4
aI4
aI4
aI3
aI3
aI3
aI3
aI3
aI3
aI3
aI3
aI3
aI3
aI3
aI3
aI2
aI2
aI2
aI2
aI2
aI2
aI2
aI2
aI2
aI2
aI1
aI1
aI1
aI1
aI1
aI1
aI1
aI1
aI1
aI1
aI1
aI0
aI0
aI0
aI0
aI0
aI0
aI0
aI0
aI0
aI6
aI6
aI6
aI6
aI6
aI6
aI6
aI6
aI6
aI6
aI6
aI6
aI6
aI6
aI6
aI6
aI6
aI6
aI5
aI5
aI5
aI5
aI5
aI5
aI5
aI5
aI5
aI5
aI5
aI4
aI4
aI4
aI4
aI4
aI4
aI4
aI4
aI4
aI4
aI4
aI4
aI3
aI3
aI3
aI3
aI3
aI3
aI3
aI3
aI3
aI3
aI3
aI3
aI2
aI2
aI2
aI2
aI2
aI2
aI2
aI2
aI2
aI2
aI2
aI2
aI1
aI1
aI1
aI1
aI1
aI1
aI1
aI1
aI0
aI0
aI0
aI0
aI0
aI0
aI0
aI0
aI0
aI6
aI6
aI6
aI6
aI6
aI6
aI6
aI6
aI6
aI6
aI6
aI6
aI6
aI6
aI6
aI6
aI6
aI6
aI5
aI5
aI5
aI5
aI5
aI5
aI5
aI5
aI5
aI5
aI4
aI4
aI4
aI4
aI4
aI4
aI4
aI4
aI4
aI3
aI3
aI3
aI3
aI3
aI3
aI3
aI3
aI3
aI3
aI3
aI2
aI2
aI2
aI2
aI2
aI2
aI2
aI2
aI2
aI2
aI2
aI1
aI1
aI1
aI1
aI1
aI1
aI1
aI6
aI6
aI6
aI6
aI6
aI6
aI6
aI6
aI6
aI6
aI6
aI6
aI6
aI6
aI6
aI6
aI6
aI5
aI5
aI5
aI5
aI5
aI5
aI5
aI5
aI5
aI5
aI5
aI5
aI5
aI4
aI4
aI4
aI4
aI4
aI4
aI4
aI4
aI4
aI4
aI4
aI4
aI3
aI3
aI3
aI3
aI3
aI3
aI3
aI3
aI3
aI2
aI2
aI2
aI2
aI2
aI2
aI2
aI2
aI2
aI2
aI2
aI2
aI1
aI1
aI1
aI1
aI1
aI1
aI1
aI0
aI0
aI0
aI0
aI0
aI0
aI0
aI0
aI0
aI0
aI5
aI6
aI6
aI6
aI6
aI6
aI6
aI6
aI6
aI6
aI6
aI6
aI6
aI6
aI6
aI6
aI6
aI5
aI5
aI5
aI5
aI5
aI5
aI5
aI5
aI5
aI4
aI4
aI4
aI4
aI4
aI4
aI4
aI4
aI4
aI4
aI3
aI3
aI3
aI3
aI3
aI3
aI3
aI3
aI3
aI3
aI3
aI3
aI2
aI2
aI2
aI2
aI2
aI2
aI2
aI2
aI2
aI2
aI2
aI2
aI2
aI1
aI1
aI1
aI1
aI1
aI1
aI1
aI1
aI1
aI0
aI0
aI0
aI0
aI0
aI0
aI0
aI0
aI0
aI6
aI6
aI6
aI6
aI6
aI6
aI6
aI6
aI6
aI6
aI6
aI6
aI6
aI6
aI6
aI6
aI6
aI6
aI5
aI5
aI5
aI5
aI5
aI5
aI5
aI5
aI5
aI4
aI4
aI4
aI4
aI4
aI4
aI4
aI4
aI4
aI4
aI3
aI3
aI3
aI3
aI3
aI3
aI3
aI3
aI3
aI3
aI3
aI3
aI3
aI2
aI2
aI2
aI2
aI2
aI2
aI2
aI2
aI2
aI2
aI2
aI1
aI1
aI1
aI1
aI1
aI1
aI1
aI1
aI1
aI1
aI1
aI1
aI1
aI1
aI0
aI0
aI0
aI0
aI0
aI0
aI0
aI0
aI0
aI6
aI6
aI6
aI6
aI6
aI6
aI6
aI6
aI6
aI6
aI6
aI6
aI6
aI6
aI6
aI6
aI6
aI6
aI5
aI5
aI5
aI5
aI5
aI5
aI5
aI5
aI5
aI5
aI5
aI4
aI4
aI4
aI4
aI4
aI4
aI4
aI4
aI4
aI4
aI4
aI4
aI3
aI3
aI3
aI3
aI3
aI3
aI3
aI3
aI3
aI3
aI3
aI3
aI3
aI3
aI2
aI2
aI2
aI2
aI2
aI2
aI2
aI2
aI2
aI1
aI1
aI1
aI1
aI1
aI1
aI1
aI1
aI1
aI1
aI0
aI0
aI0
aI0
aI0
aI0
aI0
aI0
aI6
aI6
aI6
aI6
aI6
aI6
aI6
aI6
aI6
aI6
aI6
aI6
aI6
aI5
aI5
aI5
aI5
aI5
aI5
aI5
aI5
aI5
aI5
aI5
aI5
aI4
aI4
aI4
aI4
aI4
aI4
aI4
aI4
aI4
aI4
aI4
aI4
aI4
aI3
aI3
aI3
aI3
aI3
aI3
aI3
aI3
aI3
aI3
aI3
aI2
aI2
aI2
aI2
aI2
aI2
aI2
aI2
aI2
aI2
aI1
aI1
aI1
aI1
aI1
aI1
aI1
aI1
aI1
aI1
aI1
aI1
aI0
aI0
aI0
aI0
aI0
aI0
aI0
aI0
aI0
aI0
aI6
aI6
aI6
aI6
aI6
aI6
aI6
aI6
aI6
aI6
aI6
aI6
aI6
aI6
aI6
aI6
aI5
aI5
aI5
aI5
aI5
aI5
aI5
aI5
aI5
aI4
aI4
aI4
aI4
aI4
aI4
aI4
aI4
aI4
aI4
aI4
aI4
aI4
aI3
aI3
aI3
aI3
aI3
aI3
aI3
aI3
aI3
aI3
aI2
aI2
aI2
aI2
aI2
aI2
aI2
aI2
aI2
aI1
aI1
aI1
aI1
aI1
aI1
aI1
aI1
aI0
aI0
aI0
aI0
aI0
aI0
aI0
aI0
aI0
aI0
aI6
aI6
aI6
aI6
aI6
aI6
aI6
aI6
aI6
aI6
aI6
aI6
aI6
aI6
aI6
aI5
aI5
aI5
aI5
aI5
aI5
aI5
aI5
aI4
aI4
aI4
aI4
aI4
aI4
aI4
aI4
aI4
aI4
aI4
aI4
aI4
aI3
aI3
aI3
aI3
aI3
aI3
aI3
aI3
aI3
aI3
aI3
aI2
aI2
aI2
aI2
aI2
aI2
aI2
aI2
aI2
aI2
aI1
aI1
aI1
aI1
aI1
aI1
aI1
aI1
aI1
aI1
aI1
aI0
aI0
aI0
aI0
aI0
aI0
aI0
aI0
aI0
aI6
aI6
aI6
aI6
aI6
aI6
aI6
aI6
aI6
aI6
aI6
aI6
aI6
aI6
aI6
aI5
aI5
aI5
aI5
aI5
aI5
aI5
aI5
aI5
aI5
aI4
aI4
aI4
aI4
aI4
aI4
aI4
aI4
aI4
aI4
aI4
aI3
aI3
aI3
aI3
aI3
aI3
aI3
aI3
aI3
aI3
aI3
aI3
aI3
aI3
aI3
aI2
aI2
aI2
aI2
aI2
aI2
aI2
aI2
aI2
aI2
aI2
aI2
aI2
aI1
aI1
aI1
aI1
aI1
aI1
aI1
aI1
aI1
aI0
aI0
aI0
aI0
aI0
aI0
aI0
aI0
aI0
aI6
aI6
aI6
aI6
aI6
aI6
aI6
aI6
aI6
aI6
aI6
aI6
aI6
aI6
aI6
aI6
aI5
aI5
aI5
aI5
aI5
aI5
aI5
aI5
aI5
aI5
aI5
aI5
aI5
aI4
aI4
aI4
aI4
aI4
aI4
aI4
aI4
aI4
aI3
aI3
aI3
aI3
aI3
aI3
aI3
aI3
aI3
aI3
aI2
aI2
aI2
aI2
aI2
aI2
aI1
aI2
aI2
aI2
aI1
aI1
aI1
aI1
aI1
aI1
aI1
aI1
aI1
aI1
aI1
aI1
aI1
aI0
aI0
aI0
aI0
aI0
aI0
aI0
aI0
aI6
aI6
aI6
aI6
aI6
aI6
aI6
aI6
aI6
aI6
aI6
aI6
aI6
aI6
aI6
aI6
aI6
aI6
aI5
aI5
aI5
aI5
aI5
aI5
aI5
aI5
aI5
aI4
aI4
aI4
aI4
aI4
aI4
aI4
aI4
aI4
aI4
aI4
aI4
aI4
aI4
aI3
aI3
aI3
aI3
aI3
aI3
aI3
aI3
aI3
aI3
aI3
aI3
aI2
aI2
aI2
aI2
aI2
aI2
aI2
aI2
aI2
aI2
aI2
aI2
aI1
aI1
aI1
aI1
aI1
aI1
aI1
aI1
aI1
aI1
aI0
aI0
aI0
aI0
aI0
aI0
aI0
aI0
aI0
aI0
aI6
aI6
aI6
aI6
aI6
aI6
aI6
aI6
aI6
aI6
aI6
aI6
aI6
aI6
aI6
aI6
aI5
aI5
aI5
aI5
aI5
aI5
aI5
aI5
aI5
aI5
aI5
aI5
aI4
aI4
aI4
aI4
aI4
aI4
aI4
aI4
aI4
aI4
aI4
aI4
aI4
aI3
aI3
aI3
aI3
aI3
aI3
aI3
aI3
aI3
aI3
aI3
aI3
aI2
aI2
aI2
aI2
aI2
aI2
aI2
aI2
aI2
aI2
aI2
aI2
aI2
aI1
aI1
aI1
aI1
aI1
aI1
aI1
aI1
aI1
aI1
aI1
aI1
aI0
aI0
aI0
aI0
aI0
aI0
aI0
aI0
aI0
aI0
aI6
aI6
aI6
aI6
aI6
aI6
aI6
aI6
aI6
aI6
aI6
aI6
aI6
aI6
aI6
aI6
aI6
aI6
aI5
aI5
aI5
aI5
aI5
aI5
aI5
aI5
aI5
aI4
aI4
aI4
aI4
aI4
aI4
aI4
aI4
aI4
aI4
aI4
aI3
aI3
aI3
aI3
aI3
aI3
aI3
aI3
aI3
aI3
aI3
aI3
aI2
aI2
aI2
aI2
aI2
aI2
aI2
aI2
aI2
aI2
aI2
aI2
aI2
aI1
aI1
aI1
aI1
aI1
aI1
aI1
aI1
aI1
aI1
aI1
aI0
aI0
aI0
aI0
aI5
aI5
aI5
aI5
aI5
aI5
aI5
aI5
aI5
aI5
aI5
aI5
aI4
aI4
aI4
aI4
aI4
aI4
aI4
aI4
aI4
aI4
aI4
aI3
aI3
aI3
aI3
aI3
aI3
aI3
aI3
aI3
aI3
aI3
aI2
aI2
aI2
aI2
aI2
aI2
aI2
aI2
aI2
aI2
aI2
aI2
aI2
aI1
aI1
aI1
aI1
aI1
aI1
aI1
aI1
aI1
aI1
aI0
aI0
aI0
aI0
aI0
aI0
aI0
aI0
aI0
aI0
aI0
aI0
aI0
aI6
aI6
aI6
aI6
aI6
aI6
aI6
aI6
aI6
aI6
aI6
aI6
aI6
aI6
aI6
aI6
aI6
aI6
aI5
aI5
aI5
aI5
aI5
aI5
aI5
aI5
aI5
aI5
aI4
aI4
aI4
aI4
aI4
aI4
aI4
aI4
aI4
aI4
aI3
aI3
aI3
aI3
aI3
aI3
aI3
aI3
aI2
aI2
aI2
aI2
aI2
aI2
aI2
aI2
aI2
aI2
aI2
aI1
aI1
aI1
aI1
aI1
aI1
aI1
aI1
aI1
aI1
aI1
aI1
aI0
aI0
aI0
aI0
aI0
aI0
aI0
aI0
aI0
aI0
aI6
aI6
aI6
aI6
aI6
aI6
aI6
aI6
aI6
aI6
aI6
aI6
aI6
aI6
aI6
aI5
aI5
aI5
aI5
aI5
aI5
aI5
aI5
aI5
aI5
aI5
aI5
aI5
aI5
aI4
aI4
aI4
aI4
aI4
aI4
aI4
aI4
aI4
aI4
aI4
aI4
aI4
aI3
aI3
aI3
aI3
aI3
aI3
aI3
aI3
aI3
aI3
aI3
aI3
aI3
aI2
aI2
aI2
aI2
aI2
aI2
aI2
aI2
aI2
aI2
aI2
aI2
aI1
aI1
aI1
aI1
aI1
aI1
aI1
aI1
aI1
aI1
aI1
aI0
aI0
aI0
aI0
aI0
aI0
aI0
aI6
aI6
aI6
aI6
aI6
aI6
aI6
aI6
aI6
aI6
aI6
aI6
aI6
aI6
aI6
aI5
aI5
aI5
aI5
aI5
aI5
aI5
aI5
aI5
aI5
aI5
aI5
aI5
aI5
aI4
aI4
aI4
aI4
aI4
aI4
aI4
aI4
aI4
aI4
aI4
aI4
aI3
aI3
aI3
aI3
aI3
aI3
aI3
aI3
aI3
aI3
aI3
aI3
aI2
aI2
aI2
aI2
aI2
aI2
aI2
aI2
aI2
aI2
aI2
aI1
aI1
aI1
aI1
aI1
aI1
aI1
aI1
aI1
aI1
aI1
aI1
aI0
aI0
aI0
aI0
aI0
aI0
aI0
aI0
aI0
aI6
aI6
aI6
aI6
aI6
aI6
aI6
aI6
aI6
aI6
aI6
aI6
aI6
aI6
aI6
aI6
aI6
aI5
aI5
aI5
aI5
aI5
aI5
aI5
aI5
aI5
aI5
aI5
aI5
aI4
aI4
aI4
aI4
aI4
aI4
aI4
aI4
aI4
aI4
aI4
aI4
aI3
aI3
aI3
aI3
aI3
aI3
aI3
aI3
aI3
aI3
aI3
aI2
aI2
aI2
aI2
aI2
aI2
aI2
aI2
aI2
aI2
aI2
aI2
aI2
aI2
aI1
aI1
aI1
aI1
aI1
aI1
aI1
aI1
aI1
aI1
aI1
aI0
aI0
aI0
aI0
aI0
aI0
aI0
aI0
aI0
aI0
aI6
aI6
aI6
aI6
aI6
aI6
aI6
aI6
aI6
aI6
aI6
aI6
aI6
aI6
aI6
aI6
aI6
aI6
aI5
aI5
aI5
aI5
aI5
aI5
aI5
aI5
aI5
aI5
aI4
aI4
aI4
aI4
aI4
aI4
aI4
aI4
aI4
aI4
aI4
aI3
aI3
aI3
aI3
aI3
aI3
aI3
aI3
aI3
aI3
aI3
aI3
aI2
aI2
aI2
aI2
aI2
aI2
aI2
aI2
aI2
aI2
aI2
aI2
aI2
aI2
aI1
aI1
aI1
aI1
aI1
aI1
aI1
aI1
aI1
aI1
aI1
aI1
aI0
aI0
aI0
aI0
aI0
aI0
aI0
aI0
aI0
aI6
aI6
aI6
aI6
aI6
aI6
aI6
aI6
aI6
aI6
aI6
aI6
aI6
aI6
aI6
aI6
aI5
aI5
aI5
aI5
aI5
aI5
aI5
aI5
aI5
aI5
aI4
aI4
aI4
aI4
aI4
aI4
aI4
aI4
aI4
aI4
aI4
aI4
aI3
aI3
aI3
aI3
aI3
aI3
aI3
aI3
aI3
aI3
aI3
aI2
aI2
aI2
aI2
aI2
aI2
aI2
aI2
aI2
aI2
aI2
aI2
aI2
aI2
aI1
aI1
aI1
aI1
aI1
aI1
aI1
aI1
aI1
aI0
aI0
aI0
aI0
aI0
aI0
aI0
aI6
aI6
aI6
aI6
aI6
aI6
aI6
aI6
aI6
aI6
aI6
aI6
aI6
aI6
aI6
aI6
aI6
aI6
aI5
aI5
aI5
aI5
aI5
aI5
aI5
aI5
aI5
aI5
aI5
aI5
aI5
aI5
aI5
aI4
aI4
aI4
aI4
aI4
aI4
aI4
aI4
aI4
aI4
aI4
aI3
aI3
aI3
aI3
aI3
aI3
aI3
aI3
aI3
aI3
aI3
aI2
aI2
aI2
aI2
aI2
aI2
aI2
aI2
aI2
aI2
aI2
aI2
aI2
aI1
aI1
aI1
aI1
aI1
aI1
aI1
aI1
aI1
aI1
aI1
aI0
aI0
aI0
aI0
aI0
aI0
aI0
aI0
aI6
aI6
aI6
aI6
aI6
aI6
aI6
aI6
aI6
aI6
aI6
aI6
aI6
aI6
aI6
aI6
aI5
aI5
aI5
aI5
aI5
aI5
aI5
aI5
aI5
aI5
aI5
aI4
aI4
aI4
aI4
aI4
aI4
aI4
aI4
aI4
aI4
aI4
aI3
aI3
aI3
aI3
aI3
aI3
aI3
aI3
aI3
aI3
aI3
aI3
aI3
aI2
aI2
aI2
aI2
aI2
aI2
aI2
aI2
aI2
aI2
aI2
aI2
aI1
aI1
aI1
aI1
aI1
aI1
aI1
aI1
aI1
aI1
aI1
aI1
aI0
aI0
aI0
aI0
aI0
aI0
aI0
aI0
aI0
aI0
aI0
aI6
aI6
aI6
aI6
aI6
aI6
aI6
aI6
aI6
aI6
aI6
aI6
aI6
aI6
aI6
aI6
aI6
aI6
aI5
aI5
aI5
aI5
aI5
aI5
aI5
aI5
aI5
aI5
aI5
aI5
aI5
aI4
aI4
aI4
aI4
aI4
aI4
aI4
aI4
aI4
aI4
aI4
aI3
aI3
aI3
aI3
aI3
aI3
aI3
aI3
aI3
aI3
aI3
aI3
aI2
aI2
aI2
aI2
aI2
aI2
aI2
aI2
aI2
aI2
aI2
aI2
aI1
aI1
aI1
aI1
aI1
aI1
aI1
aI1
aI1
aI1
aI1
aI0
aI0
aI0
aI0
aI0
aI0
aI0
aI0
aI6
aI6
aI6
aI6
aI6
aI6
aI6
aI6
aI6
aI6
aI6
aI6
aI6
aI6
aI6
aI6
aI5
aI5
aI5
aI5
aI5
aI5
aI5
aI5
aI5
aI5
aI5
aI4
aI4
aI4
aI4
aI4
aI4
aI4
aI4
aI4
aI4
aI4
aI4
aI4
aI3
aI3
aI3
aI3
aI3
aI3
aI3
aI3
aI3
aI3
aI3
aI3
aI2
aI2
aI2
aI2
aI2
aI2
aI2
aI2
aI2
aI2
aI2
aI1
aI1
aI1
aI1
aI1
aI1
aI1
aI1
aI1
aI0
aI0
aI0
aI0
aI0
aI0
aI0
aI0
aI0
aI0
aI0
aI0
aI6
aI6
aI6
aI6
aI6
aI6
aI6
aI6
aI6
aI6
aI6
aI6
aI6
aI6
aI6
aI6
aI5
aI5
aI5
aI5
aI5
aI5
aI5
aI5
aI5
aI5
aI4
aI4
aI4
aI4
aI4
aI4
aI4
aI4
aI4
aI4
aI4
aI4
aI4
aI4
aI4
aI3
aI3
aI3
aI3
aI3
aI3
aI3
aI3
aI3
aI3
aI3
aI2
aI2
aI2
aI2
aI2
aI2
aI2
aI2
aI2
aI2
aI2
aI2
aI1
aI1
aI1
aI1
aI1
aI1
aI1
aI1
aI1
aI1
aI1
aI1
aI1
aI0
aI0
aI0
aI0
aI0
aI0
aI0
aI0
aI0
aI0
aI6
aI6
aI6
aI6
aI6
aI6
aI6
aI6
aI6
aI6
aI6
aI6
aI6
aI6
aI6
aI6
aI6
aI5
aI5
aI5
aI5
aI5
aI5
aI5
aI5
aI5
aI5
aI5
aI5
aI5
aI4
aI4
aI4
aI4
aI4
aI4
aI4
aI4
aI4
aI4
aI4
aI4
aI4
aI4
aI4
aI3
aI3
aI3
aI3
aI3
aI3
aI3
aI3
aI3
aI3
aI3
aI3
aI2
aI2
aI2
aI2
aI2
aI2
aI2
aI2
aI2
aI2
aI1
aI1
aI1
aI1
aI1
aI1
aI1
aI1
aI1
aI1
aI1
aI1
aI1
aI0
aI0
aI0
aI0
aI0
aI0
aI0
aI0
aI0
aI6
aI6
aI6
aI6
aI6
aI6
aI6
aI6
aI6
aI6
aI6
aI6
aI6
aI6
aI6
aI5
aI5
aI5
aI5
aI5
aI5
aI5
aI5
aI5
aI4
aI4
aI4
aI4
aI4
aI4
aI4
aI4
aI4
aI4
aI4
aI3
aI3
aI3
aI3
aI3
aI3
aI3
aI3
aI3
aI3
aI3
aI3
aI2
aI2
aI2
aI2
aI2
aI2
aI2
aI2
aI2
aI2
aI1
aI1
aI1
aI1
aI1
aI1
aI1
aI1
aI1
aI1
aI1
aI1
aI1
aI1
aI0
aI0
aI0
aI0
aI0
aI0
aI0
aI0
aI0
aI6
aI6
aI6
aI6
aI6
aI6
aI6
aI6
aI6
aI6
aI6
aI6
aI6
aI6
aI6
aI6
aI5
aI5
aI5
aI5
aI5
aI5
aI5
aI5
aI5
aI5
aI5
aI5
aI5
aI5
aI4
aI4
aI4
aI4
aI4
aI4
aI4
aI4
aI4
aI4
aI4
aI4
aI4
aI4
aI4
aI3
aI3
aI3
aI3
aI3
aI3
aI3
aI3
aI3
aI3
aI3
aI3
aI2
aI2
aI2
aI2
aI2
aI2
aI2
aI2
aI2
aI2
aI2
aI2
aI2
aI1
aI1
aI1
aI1
aI1
aI1
aI1
aI1
aI1
aI1
aI1
aI1
aI0
aI0
aI0
aI0
aI0
aI0
aI0
aI0
aI0
aI6
aI6
aI6
aI6
aI6
aI6
aI6
aI6
aI6
aI6
aI6
aI6
aI6
aI6
aI6
aI6
aI5
aI5
aI5
aI5
aI5
aI5
aI5
aI5
aI5
aI5
aI5
aI5
aI4
aI4
aI4
aI4
aI4
aI4
aI4
aI4
aI4
aI4
aI4
aI4
aI4
aI3
aI3
aI3
aI3
aI3
aI3
aI3
aI3
aI3
aI3
aI3
aI3
aI3
aI2
aI2
aI2
aI2
aI2
aI2
aI2
aI2
aI2
aI2
aI2
aI2
aI1
aI1
aI1
aI1
aI1
aI1
aI1
aI1
aI1
aI1
aI1
aI0
aI0
aI0
aI0
aI0
aI0
aI0
aI0
aI0
aI0
aI0
aI6
aI6
aI6
aI6
aI6
aI6
aI6
aI6
aI6
aI6
aI6
aI6
aI6
aI6
aI6
aI6
aI6
aI6
aI6
aI5
aI5
aI5
aI5
aI5
aI5
aI5
aI5
aI5
aI5
aI5
aI5
aI4
aI4
aI4
aI4
aI4
aI4
aI4
aI4
aI4
aI4
aI4
aI4
aI3
aI3
aI3
aI3
aI3
aI3
aI3
aI3
aI3
aI3
aI3
aI3
aI3
aI2
aI2
aI2
aI2
aI2
aI2
aI2
aI2
aI2
aI2
aI2
aI1
aI1
aI1
aI1
aI1
aI1
aI1
aI1
aI1
aI1
aI1
aI1
aI0
aI0
aI0
aI0
aI0
aI0
aI0
aI0
aI6
aI6
aI6
aI6
aI6
aI6
aI6
aI6
aI6
aI6
aI6
aI6
aI6
aI6
aI6
aI6
aI6
aI5
aI5
aI5
aI5
aI5
aI5
aI5
aI5
aI5
aI5
aI5
aI5
aI5
aI5
aI5
aI5
aI4
aI4
aI4
aI4
aI4
aI4
aI4
aI4
aI4
aI4
aI4
aI4
aI3
aI3
aI3
aI3
aI3
aI3
aI3
aI3
aI3
aI3
aI3
aI2
aI2
aI2
aI2
aI2
aI2
aI2
aI2
aI2
aI2
aI2
aI2
aI2
aI2
aI2
aI1
aI1
aI1
aI1
aI1
aI1
aI1
aI1
aI1
aI1
aI1
aI0
aI0
aI0
aI0
aI0
aI0
aI0
aI0
aI0
aI0
aI6
aI6
aI6
aI6
aI6
aI6
aI6
aI6
aI6
aI6
aI6
aI6
aI6
aI5
aI5
aI5
aI5
aI5
aI5
aI5
aI5
aI5
aI5
aI5
aI4
aI4
aI4
aI4
aI4
aI4
aI4
aI4
aI4
aI4
aI4
aI4
aI3
aI3
aI3
aI3
aI3
aI3
aI3
aI3
aI2
aI2
aI2
aI2
aI2
aI2
aI2
aI2
aI2
aI1
aI1
aI1
aI1
aI1
aI1
aI1
aI1
aI1
aI1
aI1
aI1
aI0
aI0
aI0
aI0
aI0
aI0
aI0
aI0
aI0
aI0
aI0
aI6
aI6
aI6
aI6
aI6
aI6
aI6
aI6
aI5
aI5
aI5
aI5
aI5
aI5
aI5
aI5
aI5
aI5
aI4
aI4
aI4
aI4
aI4
aI4
aI4
aI4
aI4
aI4
aI4
aI4
aI3
aI3
aI3
aI3
aI3
aI3
aI3
aI3
aI3
aI3
aI2
aI2
aI2
aI2
aI2
aI2
aI1
aI1
aI1
aI1
aI1
aI1
aI1
aI1
aI1
aI1
aI1
aI1
aI1
aI0
aI0
aI0
aI0
aI0
aI0
aI0
aI0
aI0
aI0
aI6
aI6
aI6
aI6
aI6
aI6
aI6
aI6
aI6
aI6
aI6
aI6
aI6
aI6
aI6
aI5
aI5
aI5
aI5
aI5
aI5
aI5
aI5
aI5
aI5
aI5
aI5
aI4
aI4
aI4
aI4
aI4
aI4
aI4
aI4
aI4
aI4
aI4
aI4
aI4
aI4
aI3
aI3
aI3
aI3
aI3
aI3
aI3
aI3
aI3
aI3
aI3
aI3
aI2
aI2
aI2
aI2
aI2
aI2
aI2
aI2
aI2
aI2
aI1
aI1
aI1
aI1
aI1
aI1
aI1
aI1
aI1
aI1
aI0
aI0
aI0
aI0
aI0
aI0
aI0
aI0
aI0
aI0
aI0
aI0
aI0
aI0
aI6
aI6
aI6
aI6
aI6
aI6
aI6
aI6
aI6
aI6
aI6
aI6
aI6
aI6
aI6
aI5
aI5
aI5
aI5
aI5
aI5
aI5
aI5
aI5
aI5
aI5
aI5
aI5
aI4
aI4
aI4
aI4
aI4
aI4
aI4
aI4
aI4
aI4
aI4
aI3
aI3
aI3
aI3
aI3
aI3
aI3
aI3
aI3
aI3
aI3
aI3
aI3
aI3
aI3
aI3
aI2
aI2
aI2
aI2
aI2
aI2
aI2
aI2
aI1
aI1
aI1
aI1
aI1
aI1
aI1
aI1
aI1
aI1
aI1
aI1
aI1
aI0
aI0
aI0
aI0
aI0
aI0
aI0
aI0
aI0
aI6
aI6
aI6
aI6
aI6
aI6
aI6
aI6
aI6
aI6
aI6
aI6
aI6
aI6
aI6
aI6
aI5
aI5
aI5
aI5
aI5
aI5
aI5
aI5
aI5
aI5
aI5
aI4
aI4
aI4
aI4
aI4
aI4
aI4
aI4
aI4
aI4
aI4
aI4
aI4
aI3
aI3
aI3
aI3
aI3
aI3
aI3
aI3
aI3
aI3
aI3
aI2
aI2
aI2
aI2
aI2
aI2
aI2
aI2
aI2
aI2
aI2
aI2
aI1
aI1
aI1
aI1
aI1
aI1
aI1
aI1
aI1
aI1
aI1
aI1
aI0
aI0
aI0
aI0
aI0
aI0
aI0
aI0
aI6
aI6
aI6
aI6
aI6
aI6
aI6
aI6
aI6
aI6
aI6
aI6
aI6
aI6
aI5
aI5
aI5
aI5
aI5
aI5
aI5
aI5
aI5
aI5
aI5
aI5
aI5
aI4
aI4
aI4
aI4
aI4
aI4
aI4
aI4
aI4
aI4
aI3
aI3
aI3
aI3
aI3
aI3
aI3
aI3
aI3
aI3
aI3
aI3
aI3
aI3
aI2
aI2
aI2
aI2
aI2
aI2
aI2
aI2
aI2
aI2
aI2
aI0
aI1
aI1
aI1
aI1
aI1
aI1
aI1
aI1
aI1
aI1
aI1
aI1
aI0
aI0
aI0
aI0
aI0
aI0
aI0
aI0
aI0
aI0
aI6
aI6
aI6
aI6
aI6
aI6
aI6
aI6
aI6
aI6
aI6
aI6
aI6
aI6
aI6
aI6
aI6
aI6
aI5
aI5
aI5
aI5
aI5
aI5
aI5
aI5
aI5
aI5
aI5
aI4
aI4
aI4
aI4
aI4
aI4
aI4
aI4
aI4
aI3
aI3
aI3
aI3
aI3
aI3
aI3
aI3
aI3
aI3
aI3
aI3
aI2
aI2
aI2
aI2
asS'uniquetokens'
p12
(lp13
I0
aI1
aI2
aI3
aI4
aI5
aI6
asS'tokentoid'
p14
(dp15
I0
I0
sI1
I1
sI2
I2
sI3
I3
sI4
I4
sI5
I5
sI6
I6
ssS'ntokens'
p16
I7
sS'nonegroup'
p17
I00
sb.