cpandas.indexes.base
_new_Index
p0
(cpandas.indexes.base
Index
p1
(dp2
S'data'
p3
cnumpy.core.multiarray
_reconstruct
p4
(cnumpy
ndarray
p5
(I0
tp6
S'b'
p7
tp8
Rp9
(I1
(I95
tp10
cnumpy
dtype
p11
(S'O8'
p12
I0
I1
tp13
Rp14
(I3
S'|'
p15
NNNI-1
I-1
I63
tp16
bI00
(lp17
Vday_0
p18
aVday_1
p19
aVday_2
p20
aVday_3
p21
aVday_4
p22
aVday_5
p23
aVday_6
p24
aVauthor_0
p25
aVauthor_1
p26
aVauthor_2
p27
aVauthor_3
p28
aVauthor_4
p29
aVauthor_5
p30
aVauthor_6
p31
aVauthor_7
p32
aVauthor_8
p33
aVauthor_9
p34
aVauthor_10
p35
aVauthor_11
p36
aVauthor_12
p37
aVauthor_13
p38
aVauthor_14
p39
aVauthor_15
p40
aVauthor_16
p41
aVauthor_17
p42
aVauthor_18
p43
aVauthor_19
p44
aVauthor_20
p45
aVauthor_21
p46
aVauthor_22
p47
aVauthor_23
p48
aVauthor_24
p49
aVauthor_25
p50
aVauthor_26
p51
aVauthor_27
p52
aVauthor_28
p53
aVauthor_29
p54
aVauthor_30
p55
aVauthor_31
p56
aVauthor_32
p57
aVauthor_33
p58
aVauthor_34
p59
aVauthor_35
p60
aVauthor_36
p61
aVauthor_37
p62
aS'topic_0'
p63
aS'topic_1'
p64
aS'topic_2'
p65
aS'topic_3'
p66
aS'topic_4'
p67
aS'topic_5'
p68
aS'topic_6'
p69
aS'topic_7'
p70
aS'topic_8'
p71
aS'topic_9'
p72
aS'topic_10'
p73
aS'topic_11'
p74
aS'topic_12'
p75
aS'topic_13'
p76
aS'topic_14'
p77
aS'topic_15'
p78
aS'topic_16'
p79
aS'topic_17'
p80
aS'topic_18'
p81
aS'topic_19'
p82
aS'topic_20'
p83
aS'topic_21'
p84
aS'topic_22'
p85
aS'topic_23'
p86
aS'topic_24'
p87
aS'topic_25'
p88
aS'topic_26'
p89
aS'topic_27'
p90
aS'topic_28'
p91
aS'topic_29'
p92
aS'topic_30'
p93
aS'topic_31'
p94
aS'topic_32'
p95
aS'topic_33'
p96
aS'topic_34'
p97
aS'topic_35'
p98
aS'topic_36'
p99
aS'topic_37'
p100
aS'topic_38'
p101
aS'topic_39'
p102
aS'topic_40'
p103
aS'topic_41'
p104
aS'topic_42'
p105
aS'topic_43'
p106
aS'topic_44'
p107
aS'topic_45'
p108
aS'topic_46'
p109
aS'topic_47'
p110
aS'topic_48'
p111
aS'topic_49'
p112
atp113
bsS'name'
p114
Nstp115
Rp116
.